; Function Attrs: mustprogress uwtable
define dso_local void @_ZN19cmUVJobServerClient4Impl12DisconnectedEi(ptr noundef nonnull align 8 dereferenceable(104) %0, i32 noundef %1) local_unnamed_addr #3 align 2 {
  %3 = alloca i32, align 4
  %4 = getelementptr inbounds i8, ptr %0, i64 80
  %5 = load ptr, ptr %4, align 8
  %.not.i.i.not = icmp eq ptr %5, null
  br i1 %.not.i.i.not, label %9, label %_ZNKSt8functionIFviEEclEi.exit

_ZNKSt8functionIFviEEclEi.exit:                   ; preds = %2
  %6 = getelementptr inbounds i8, ptr %0, i64 64
  call void @llvm.lifetime.start.p0(i64 4, ptr nonnull %3)
  store i32 %1, ptr %3, align 4
  %7 = getelementptr inbounds i8, ptr %0, i64 88
  %8 = load ptr, ptr %7, align 8
  call void %8(ptr noundef nonnull align 8 dereferenceable(16) %6, ptr noundef nonnull align 4 dereferenceable(4) %3)
  call void @llvm.lifetime.end.p0(i64 4, ptr nonnull %3)
  br label %9

9:                                                ; preds = %_ZNKSt8functionIFviEEclEi.exit, %2
  ret void
}